target datalayout = "e-m:e-p270:32:32-p271:32:32-p272:64:64-i64:64-i128:128-f80:128-n8:16:32:64-S128"
target triple = "x86_64-pc-linux-gnu"

@hf_capwap_preamble = internal global i32 0, align 4
@hf_capwap_preamble_version = internal global i32 0, align 4
@hf_capwap_preamble_type = internal global i32 0, align 4
@hf_capwap_preamble_reserved = internal global i32 0, align 4
@ett_capwap_preamble = internal global i32 0, align 4

; Function Attrs: null_pointer_is_valid sspstrong uwtable
define internal i32 @dissect_capwap_preamble(ptr noundef %0, ptr noundef %1, i32 noundef %2, ptr noundef %3) #0 {
  %5 = alloca ptr, align 8
  %6 = alloca ptr, align 8
  %7 = alloca i32, align 4
  %8 = alloca ptr, align 8
  %9 = alloca i32, align 4
  %10 = alloca ptr, align 8
  %11 = alloca ptr, align 8
  store ptr %0, ptr %5, align 8
  store ptr %1, ptr %6, align 8
  store i32 %2, ptr %7, align 4
  store ptr %3, ptr %8, align 8
  call void @llvm.lifetime.start.p0(i64 4, ptr %9) #3
  store i32 0, ptr %9, align 4
  call void @llvm.lifetime.start.p0(i64 8, ptr %10) #3
  call void @llvm.lifetime.start.p0(i64 8, ptr %11) #3
  %12 = load ptr, ptr %6, align 8
  %13 = load i32, ptr @hf_capwap_preamble, align 4
  %14 = load ptr, ptr %5, align 8
  %15 = load i32, ptr %7, align 4
  %16 = load i32, ptr %9, align 4
  %17 = add i32 %15, %16
  %18 = call ptr @proto_tree_add_item(ptr noundef %12, i32 noundef %13, ptr noundef %14, i32 noundef %17, i32 noundef -1, i32 noundef 0)
  store ptr %18, ptr %10, align 8
  %19 = load ptr, ptr %10, align 8
  %20 = load i32, ptr @ett_capwap_preamble, align 4
  %21 = call ptr @proto_item_add_subtree(ptr noundef %19, i32 noundef %20)
  store ptr %21, ptr %11, align 8
  %22 = load ptr, ptr %11, align 8
  %23 = load i32, ptr @hf_capwap_preamble_version, align 4
  %24 = load ptr, ptr %5, align 8
  %25 = load i32, ptr %7, align 4
  %26 = load i32, ptr %9, align 4
  %27 = add i32 %25, %26
  %28 = call ptr @proto_tree_add_item(ptr noundef %22, i32 noundef %23, ptr noundef %24, i32 noundef %27, i32 noundef 1, i32 noundef 0)
  %29 = load ptr, ptr %11, align 8
  %30 = load i32, ptr @hf_capwap_preamble_type, align 4
  %31 = load ptr, ptr %5, align 8
  %32 = load i32, ptr %7, align 4
  %33 = load i32, ptr %9, align 4
  %34 = add i32 %32, %33
  %35 = call ptr @proto_tree_add_item(ptr noundef %29, i32 noundef %30, ptr noundef %31, i32 noundef %34, i32 noundef 1, i32 noundef 0)
  %36 = load ptr, ptr %5, align 8
  %37 = load i32, ptr %7, align 4
  %38 = load i32, ptr %9, align 4
  %39 = add i32 %37, %38
  %40 = call zeroext i8 @tvb_get_uint8(ptr noundef %36, i32 noundef %39)
  %41 = zext i8 %40 to i32
  %42 = and i32 %41, 15
  %43 = trunc i32 %42 to i8
  %44 = load ptr, ptr %8, align 8
  store i8 %43, ptr %44, align 1
  %45 = load i32, ptr %9, align 4
  %46 = add i32 %45, 1
  store i32 %46, ptr %9, align 4
  %47 = load ptr, ptr %8, align 8
  %48 = load i8, ptr %47, align 1
  %49 = zext i8 %48 to i32
  %50 = icmp eq i32 %49, 1
  br i1 %50, label %51, label %61

51:                                               ; preds = %4
  %52 = load ptr, ptr %11, align 8
  %53 = load i32, ptr @hf_capwap_preamble_reserved, align 4
  %54 = load ptr, ptr %5, align 8
  %55 = load i32, ptr %7, align 4
  %56 = load i32, ptr %9, align 4
  %57 = add i32 %55, %56
  %58 = call ptr @proto_tree_add_item(ptr noundef %52, i32 noundef %53, ptr noundef %54, i32 noundef %57, i32 noundef 3, i32 noundef 0)
  %59 = load i32, ptr %9, align 4
  %60 = add i32 %59, 3
  store i32 %60, ptr %9, align 4
  br label %61

61:                                               ; preds = %51, %4
  %62 = load ptr, ptr %10, align 8
  %63 = load i32, ptr %9, align 4
  call void @proto_item_set_len(ptr noundef %62, i32 noundef %63)
  %64 = load i32, ptr %9, align 4
  call void @llvm.lifetime.end.p0(i64 8, ptr %11) #3
  call void @llvm.lifetime.end.p0(i64 8, ptr %10) #3
  call void @llvm.lifetime.end.p0(i64 4, ptr %9) #3
  ret i32 %64
}