; Function Attrs: null_pointer_is_valid sspstrong uwtable
define internal fastcc range(i32 1, 5) i32 @dissect_capwap_preamble(ptr noundef %0, ptr noundef %1, ptr noundef writeonly captures(none) initializes((0, 1)) %2) unnamed_addr #0 {
  %4 = load i32, ptr @hf_capwap_preamble, align 4
  %5 = tail call ptr @proto_tree_add_item(ptr noundef %1, i32 noundef %4, ptr noundef %0, i32 noundef 0, i32 noundef -1, i32 noundef 0)
  %6 = load i32, ptr @ett_capwap_preamble, align 4
  %7 = tail call ptr @proto_item_add_subtree(ptr noundef %5, i32 noundef %6)
  %8 = load i32, ptr @hf_capwap_preamble_version, align 4
  %9 = tail call ptr @proto_tree_add_item(ptr noundef %7, i32 noundef %8, ptr noundef %0, i32 noundef 0, i32 noundef 1, i32 noundef 0)
  %10 = load i32, ptr @hf_capwap_preamble_type, align 4
  %11 = tail call ptr @proto_tree_add_item(ptr noundef %7, i32 noundef %10, ptr noundef %0, i32 noundef 0, i32 noundef 1, i32 noundef 0)
  %12 = tail call zeroext i8 @tvb_get_uint8(ptr noundef %0, i32 noundef 0)
  %13 = and i8 %12, 15
  store i8 %13, ptr %2, align 1
  %14 = icmp eq i8 %13, 1
  br i1 %14, label %15, label %18

15:                                               ; preds = %3
  %16 = load i32, ptr @hf_capwap_preamble_reserved, align 4
  %17 = tail call ptr @proto_tree_add_item(ptr noundef %7, i32 noundef %16, ptr noundef %0, i32 noundef 1, i32 noundef 3, i32 noundef 0)
  br label %18

18:                                               ; preds = %15, %3
  %.0 = phi i32 [ 4, %15 ], [ 1, %3 ]
  tail call void @proto_item_set_len(ptr noundef %5, i32 noundef %.0)
  ret i32 %.0
}